target datalayout = "e-m:e-p270:32:32-p271:32:32-p272:64:64-i64:64-i128:128-f80:128-n8:16:32:64-S128"
target triple = "x86_64-pc-linux-gnu"

%struct.ObjectAddress = type { i32, i32, i32 }
%struct.EventTriggerQueryState = type { ptr, %struct.slist_head, i8, i32, i32, i8, ptr, ptr, ptr }
%struct.slist_head = type { %struct.slist_node }
%struct.slist_node = type { ptr }
%struct.CollectedCommand = type { i32, i8, ptr, %union.anon, ptr }
%union.anon = type { %struct.anon.2 }
%struct.anon.2 = type { %struct.ObjectAddress, ptr, ptr }
%struct.anon.4 = type { %struct.ObjectAddress, ptr, i32 }

@currentEventTriggerState = internal global ptr null, align 8
@creating_extension = external global i8, align 1
@CurrentMemoryContext = external global ptr, align 8

; Function Attrs: inlinehint nounwind uwtable
define internal ptr @MemoryContextSwitchTo(ptr noundef %0) #6 {
  %2 = alloca ptr, align 8
  %3 = alloca ptr, align 8
  store ptr %0, ptr %2, align 8
  call void @llvm.lifetime.start.p0(i64 8, ptr %3) #10
  %4 = load ptr, ptr @CurrentMemoryContext, align 8
  store ptr %4, ptr %3, align 8
  %5 = load ptr, ptr %2, align 8
  store ptr %5, ptr @CurrentMemoryContext, align 8
  %6 = load ptr, ptr %3, align 8
  call void @llvm.lifetime.end.p0(i64 8, ptr %3) #10
  ret ptr %6
}

; Function Attrs: nounwind uwtable
define dso_local void @EventTriggerCollectAlterTSConfig(ptr noundef %0, i32 noundef %1, ptr noundef %2, i32 noundef %3) #0 {
  %5 = alloca ptr, align 8
  %6 = alloca i32, align 4
  %7 = alloca ptr, align 8
  %8 = alloca i32, align 4
  %9 = alloca ptr, align 8
  %10 = alloca ptr, align 8
  %11 = alloca i32, align 4
  store ptr %0, ptr %5, align 8
  store i32 %1, ptr %6, align 4
  store ptr %2, ptr %7, align 8
  store i32 %3, ptr %8, align 4
  call void @llvm.lifetime.start.p0(i64 8, ptr %9) #10
  call void @llvm.lifetime.start.p0(i64 8, ptr %10) #10
  %12 = load ptr, ptr @currentEventTriggerState, align 8
  %13 = icmp ne ptr %12, null
  br i1 %13, label %14, label %19

14:                                               ; preds = %4
  %15 = load ptr, ptr @currentEventTriggerState, align 8
  %16 = getelementptr inbounds nuw %struct.EventTriggerQueryState, ptr %15, i32 0, i32 5
  %17 = load i8, ptr %16, align 4, !range !8, !noundef !9
  %18 = trunc i8 %17 to i1
  br i1 %18, label %19, label %20

19:                                               ; preds = %14, %4
  store i32 1, ptr %11, align 4
  br label %81

20:                                               ; preds = %14
  %21 = load ptr, ptr @currentEventTriggerState, align 8
  %22 = getelementptr inbounds nuw %struct.EventTriggerQueryState, ptr %21, i32 0, i32 0
  %23 = load ptr, ptr %22, align 8
  %24 = call ptr @MemoryContextSwitchTo(ptr noundef %23)
  store ptr %24, ptr %9, align 8
  %25 = call ptr @palloc0(i64 noundef 56)
  store ptr %25, ptr %10, align 8
  %26 = load ptr, ptr %10, align 8
  %27 = getelementptr inbounds nuw %struct.CollectedCommand, ptr %26, i32 0, i32 0
  store i32 6, ptr %27, align 8
  %28 = load i8, ptr @creating_extension, align 1, !range !8, !noundef !9
  %29 = trunc i8 %28 to i1
  %30 = load ptr, ptr %10, align 8
  %31 = getelementptr inbounds nuw %struct.CollectedCommand, ptr %30, i32 0, i32 1
  %32 = zext i1 %29 to i8
  store i8 %32, ptr %31, align 4
  br label %33

33:                                               ; preds = %20
  %34 = load ptr, ptr %10, align 8
  %35 = getelementptr inbounds nuw %struct.CollectedCommand, ptr %34, i32 0, i32 3
  %36 = getelementptr inbounds nuw %struct.anon.4, ptr %35, i32 0, i32 0
  %37 = getelementptr inbounds nuw %struct.ObjectAddress, ptr %36, i32 0, i32 0
  store i32 3602, ptr %37, align 8
  %38 = load i32, ptr %6, align 4
  %39 = load ptr, ptr %10, align 8
  %40 = getelementptr inbounds nuw %struct.CollectedCommand, ptr %39, i32 0, i32 3
  %41 = getelementptr inbounds nuw %struct.anon.4, ptr %40, i32 0, i32 0
  %42 = getelementptr inbounds nuw %struct.ObjectAddress, ptr %41, i32 0, i32 1
  store i32 %38, ptr %42, align 4
  %43 = load ptr, ptr %10, align 8
  %44 = getelementptr inbounds nuw %struct.CollectedCommand, ptr %43, i32 0, i32 3
  %45 = getelementptr inbounds nuw %struct.anon.4, ptr %44, i32 0, i32 0
  %46 = getelementptr inbounds nuw %struct.ObjectAddress, ptr %45, i32 0, i32 2
  store i32 0, ptr %46, align 8
  br label %47

47:                                               ; preds = %33
  br label %48

48:                                               ; preds = %47
  %49 = load i32, ptr %8, align 4
  %50 = sext i32 %49 to i64
  %51 = mul i64 4, %50
  %52 = call ptr @palloc(i64 noundef %51)
  %53 = load ptr, ptr %10, align 8
  %54 = getelementptr inbounds nuw %struct.CollectedCommand, ptr %53, i32 0, i32 3
  %55 = getelementptr inbounds nuw %struct.anon.4, ptr %54, i32 0, i32 1
  store ptr %52, ptr %55, align 8
  %56 = load ptr, ptr %10, align 8
  %57 = getelementptr inbounds nuw %struct.CollectedCommand, ptr %56, i32 0, i32 3
  %58 = getelementptr inbounds nuw %struct.anon.4, ptr %57, i32 0, i32 1
  %59 = load ptr, ptr %58, align 8
  %60 = load ptr, ptr %7, align 8
  %61 = load i32, ptr %8, align 4
  %62 = sext i32 %61 to i64
  %63 = mul i64 4, %62
  call void @llvm.memcpy.p0.p0.i64(ptr align 4 %59, ptr align 4 %60, i64 %63, i1 false)
  %64 = load i32, ptr %8, align 4
  %65 = load ptr, ptr %10, align 8
  %66 = getelementptr inbounds nuw %struct.CollectedCommand, ptr %65, i32 0, i32 3
  %67 = getelementptr inbounds nuw %struct.anon.4, ptr %66, i32 0, i32 2
  store i32 %64, ptr %67, align 8
  %68 = load ptr, ptr %5, align 8
  %69 = call ptr @copyObjectImpl(ptr noundef %68)
  %70 = load ptr, ptr %10, align 8
  %71 = getelementptr inbounds nuw %struct.CollectedCommand, ptr %70, i32 0, i32 2
  store ptr %69, ptr %71, align 8
  %72 = load ptr, ptr @currentEventTriggerState, align 8
  %73 = getelementptr inbounds nuw %struct.EventTriggerQueryState, ptr %72, i32 0, i32 7
  %74 = load ptr, ptr %73, align 8
  %75 = load ptr, ptr %10, align 8
  %76 = call ptr @lappend(ptr noundef %74, ptr noundef %75)
  %77 = load ptr, ptr @currentEventTriggerState, align 8
  %78 = getelementptr inbounds nuw %struct.EventTriggerQueryState, ptr %77, i32 0, i32 7
  store ptr %76, ptr %78, align 8
  %79 = load ptr, ptr %9, align 8
  %80 = call ptr @MemoryContextSwitchTo(ptr noundef %79)
  store i32 0, ptr %11, align 4
  br label %81

81:                                               ; preds = %48, %19
  call void @llvm.lifetime.end.p0(i64 8, ptr %10) #10
  call void @llvm.lifetime.end.p0(i64 8, ptr %9) #10
  %82 = load i32, ptr %11, align 4
  switch i32 %82, label %84 [
    i32 0, label %83
    i32 1, label %83
  ]

83:                                               ; preds = %81, %81
  ret void

84:                                               ; preds = %81
  unreachable
}