; Function Attrs: nounwind uwtable
define dso_local void @EventTriggerCollectAlterTSConfig(ptr noundef %0, i32 noundef %1, ptr noundef readonly captures(none) %2, i32 noundef %3) local_unnamed_addr #0 {
  %5 = load ptr, ptr @currentEventTriggerState, align 8
  %.not = icmp eq ptr %5, null
  br i1 %.not, label %32, label %6

6:                                                ; preds = %4
  %7 = getelementptr inbounds nuw i8, ptr %5, i64 28
  %8 = load i8, ptr %7, align 4, !range !9, !noundef !10
  %9 = trunc nuw i8 %8 to i1
  br i1 %9, label %32, label %10

10:                                               ; preds = %6
  %11 = load ptr, ptr %5, align 8
  %12 = load ptr, ptr @CurrentMemoryContext, align 8
  store ptr %11, ptr @CurrentMemoryContext, align 8
  %13 = tail call ptr @palloc0(i64 noundef 56) #16
  store i32 6, ptr %13, align 8
  %14 = load i8, ptr @creating_extension, align 1, !range !9, !noundef !10
  %15 = getelementptr inbounds nuw i8, ptr %13, i64 4
  store i8 %14, ptr %15, align 4
  %16 = getelementptr inbounds nuw i8, ptr %13, i64 16
  store i32 3602, ptr %16, align 8
  %17 = getelementptr inbounds nuw i8, ptr %13, i64 20
  store i32 %1, ptr %17, align 4
  %18 = getelementptr inbounds nuw i8, ptr %13, i64 24
  store i32 0, ptr %18, align 8
  %19 = sext i32 %3 to i64
  %20 = shl nsw i64 %19, 2
  %21 = tail call ptr @palloc(i64 noundef %20) #16
  %22 = getelementptr inbounds nuw i8, ptr %13, i64 32
  store ptr %21, ptr %22, align 8
  tail call void @llvm.memcpy.p0.p0.i64(ptr align 4 %21, ptr align 4 %2, i64 %20, i1 false)
  %23 = getelementptr inbounds nuw i8, ptr %13, i64 40
  store i32 %3, ptr %23, align 8
  %24 = tail call ptr @copyObjectImpl(ptr noundef %0) #16
  %25 = getelementptr inbounds nuw i8, ptr %13, i64 8
  store ptr %24, ptr %25, align 8
  %26 = load ptr, ptr @currentEventTriggerState, align 8
  %27 = getelementptr inbounds nuw i8, ptr %26, i64 40
  %28 = load ptr, ptr %27, align 8
  %29 = tail call ptr @lappend(ptr noundef %28, ptr noundef nonnull %13) #16
  %30 = load ptr, ptr @currentEventTriggerState, align 8
  %31 = getelementptr inbounds nuw i8, ptr %30, i64 40
  store ptr %29, ptr %31, align 8
  store ptr %12, ptr @CurrentMemoryContext, align 8
  br label %32

32:                                               ; preds = %4, %6, %10
  ret void
}